; Function Attrs: nounwind sspstrong uwtable
define internal noundef i32 @vfio_load_cleanup(ptr noundef readonly captures(none) %opaque) #2 {
entry:
  %_now.i.i = alloca %struct.timeval, align 8
  %0 = getelementptr i8, ptr %opaque, i64 128
  %opaque.val = load ptr, ptr %0, align 8
  %data_fd.i = getelementptr inbounds nuw i8, ptr %opaque.val, i64 44
  %1 = load i32, ptr %data_fd.i, align 4
  %call.i = tail call i32 @close(i32 noundef %1) #16
  store i32 -1, ptr %data_fd.i, align 4
  %name = getelementptr inbounds nuw i8, ptr %opaque, i64 72
  %2 = load ptr, ptr %name, align 8
  call void @llvm.lifetime.start.p0(i64 16, ptr nonnull %_now.i.i)
  %3 = load i32, ptr @trace_events_enabled_count, align 4
  %tobool.i.i = icmp ne i32 %3, 0
  %4 = load i16, ptr @_TRACE_VFIO_LOAD_CLEANUP_DSTATE, align 2
  %tobool4.i.i = icmp ne i16 %4, 0
  %or.cond.i.i = select i1 %tobool.i.i, i1 %tobool4.i.i, i1 false
  br i1 %or.cond.i.i, label %land.lhs.true5.i.i, label %trace_vfio_load_cleanup.exit

land.lhs.true5.i.i:                               ; preds = %entry
  %5 = load i32, ptr @qemu_loglevel, align 4
  %and.i.i.i = and i32 %5, 32768
  %cmp.i.not.i.i = icmp eq i32 %and.i.i.i, 0
  br i1 %cmp.i.not.i.i, label %trace_vfio_load_cleanup.exit, label %if.then.i.i

if.then.i.i:                                      ; preds = %land.lhs.true5.i.i
  %6 = load i8, ptr @message_with_timestamp, align 1
  %tobool7.i.i = trunc i8 %6 to i1
  br i1 %tobool7.i.i, label %if.then8.i.i, label %if.else.i.i

if.then8.i.i:                                     ; preds = %if.then.i.i
  %call9.i.i = call i32 @gettimeofday(ptr noundef nonnull %_now.i.i, ptr noundef null) #16
  %call10.i.i = tail call i32 @qemu_get_thread_id() #16
  %7 = load i64, ptr %_now.i.i, align 8
  %tv_usec.i.i = getelementptr inbounds nuw i8, ptr %_now.i.i, i64 8
  %8 = load i64, ptr %tv_usec.i.i, align 8
  tail call void (ptr, ...) @qemu_log(ptr noundef nonnull @.str.60, i32 noundef %call10.i.i, i64 noundef %7, i64 noundef %8, ptr noundef %2) #16
  br label %trace_vfio_load_cleanup.exit

if.else.i.i:                                      ; preds = %if.then.i.i
  tail call void (ptr, ...) @qemu_log(ptr noundef nonnull @.str.61, ptr noundef %2) #16
  br label %trace_vfio_load_cleanup.exit

trace_vfio_load_cleanup.exit:                     ; preds = %entry, %land.lhs.true5.i.i, %if.then8.i.i, %if.else.i.i
  call void @llvm.lifetime.end.p0(i64 16, ptr nonnull %_now.i.i)
  ret i32 0
}